#
# Make AIT own ca-bundle:
# - for each new root CA:
#   openssl x509 -in root-ca.crt -text -fingerprint >>ca-bundle.crt
# - add cosmetic newlines:
#   cat >>ca-bundle.crt
#

Certificate:
    Data:
        Version: 3 (0x2)
        Serial Number: 10654768054754386075 (0x93dd57182bd0a09b)
    Signature Algorithm: sha1WithRSAEncryption
        Issuer: O=AIT, OU=ITServ/emailAddress=helpdesk@ait.ac.th, L=Klong Luang, ST=Pathum Thani, C=TH, CN=AIT ITServ CA
        Validity
            Not Before: Jul 11 06:41:19 2012 GMT
            Not After : Jul  9 06:41:19 2022 GMT
        Subject: O=AIT, OU=ITServ/emailAddress=helpdesk@ait.ac.th, L=Klong Luang, ST=Pathum Thani, C=TH, CN=AIT ITServ CA
        Subject Public Key Info:
            Public Key Algorithm: rsaEncryption
                Public-Key: (1024 bit)
                Modulus:
                    00:de:8a:ce:a8:88:53:22:ea:87:84:25:03:d8:2b:
                    8c:9a:5b:df:72:e3:ba:79:2a:90:a2:ae:79:ac:4e:
                    85:db:85:bb:83:79:ba:e8:81:65:a0:91:41:f5:08:
                    f4:1d:87:6e:c7:7a:00:4b:20:7e:58:c3:33:a2:3f:
                    67:dd:23:fd:d1:70:49:6c:c9:c9:05:c2:b1:f5:6d:
                    14:66:17:6b:4e:51:8f:e4:bb:d6:c6:e3:b5:42:f0:
                    94:c4:76:75:12:a8:f6:b6:1e:0a:ff:96:be:73:5d:
                    00:6e:ac:a8:28:34:14:9d:28:2f:5d:e5:09:62:62:
                    bb:07:18:b3:52:30:4b:ac:4b
                Exponent: 65537 (0x10001)
        X509v3 extensions:
            X509v3 Basic Constraints: 
                CA:TRUE
            X509v3 Subject Key Identifier: 
                EC:F5:5D:51:89:9F:96:D2:6F:B1:69:69:A1:F9:33:08:66:CD:A7:C2
            X509v3 Authority Key Identifier: 
                keyid:EC:F5:5D:51:89:9F:96:D2:6F:B1:69:69:A1:F9:33:08:66:CD:A7:C2
                DirName:/O=AIT/OU=ITServ/emailAddress=helpdesk@ait.ac.th/L=Klong Luang/ST=Pathum Thani/C=TH/CN=AIT ITServ CA
                serial:93:DD:57:18:2B:D0:A0:9B

    Signature Algorithm: sha1WithRSAEncryption
         12:d8:37:18:d9:fc:69:e7:18:c5:a7:ac:6d:d4:34:fb:e7:c5:
         af:cd:dd:38:de:22:68:9c:2b:77:ae:68:d5:7f:61:9c:d3:f3:
         da:47:f8:33:b7:92:20:ef:f6:93:78:ef:6e:d2:93:0f:d9:1e:
         ab:98:87:c0:63:05:6f:95:04:19:fb:5e:31:7d:2c:8d:06:5a:
         e9:2e:4f:dc:e0:84:b2:05:a3:c1:cd:79:cb:1f:38:5d:73:bf:
         2f:cd:c2:24:0c:d0:0b:fd:13:9c:f5:d6:cf:16:b4:9c:24:a9:
         d3:c1:b7:da:f4:19:af:bb:c2:db:fc:33:9f:1e:d6:0f:19:f8:
         9b:bd
SHA1 Fingerprint=B7:3F:04:8F:1B:66:A8:FB:75:C5:19:F9:05:53:80:A9:9F:9B:BF:9B
-----BEGIN CERTIFICATE-----
MIIDpTCCAw6gAwIBAgIJAJPdVxgr0KCbMA0GCSqGSIb3DQEBBQUAMIGUMQwwCgYD
VQQKEwNBSVQxDzANBgNVBAsTBklUU2VydjEhMB8GCSqGSIb3DQEJARYSaGVscGRl
c2tAYWl0LmFjLnRoMRQwEgYDVQQHEwtLbG9uZyBMdWFuZzEVMBMGA1UECBMMUGF0
aHVtIFRoYW5pMQswCQYDVQQGEwJUSDEWMBQGA1UEAxMNQUlUIElUU2VydiBDQTAe
Fw0xMjA3MTEwNjQxMTlaFw0yMjA3MDkwNjQxMTlaMIGUMQwwCgYDVQQKEwNBSVQx
DzANBgNVBAsTBklUU2VydjEhMB8GCSqGSIb3DQEJARYSaGVscGRlc2tAYWl0LmFj
LnRoMRQwEgYDVQQHEwtLbG9uZyBMdWFuZzEVMBMGA1UECBMMUGF0aHVtIFRoYW5p
MQswCQYDVQQGEwJUSDEWMBQGA1UEAxMNQUlUIElUU2VydiBDQTCBnzANBgkqhkiG
9w0BAQEFAAOBjQAwgYkCgYEA3orOqIhTIuqHhCUD2CuMmlvfcuO6eSqQoq55rE6F
24W7g3m66IFloJFB9Qj0HYdux3oASyB+WMMzoj9n3SP90XBJbMnJBcKx9W0UZhdr
TlGP5LvWxuO1QvCUxHZ1Eqj2th4K/5a+c10AbqyoKDQUnSgvXeUJYmK7BxizUjBL
rEsCAwEAAaOB/DCB+TAMBgNVHRMEBTADAQH/MB0GA1UdDgQWBBTs9V1RiZ+W0m+x
aWmh+TMIZs2nwjCByQYDVR0jBIHBMIG+gBTs9V1RiZ+W0m+xaWmh+TMIZs2nwqGB
mqSBlzCBlDEMMAoGA1UEChMDQUlUMQ8wDQYDVQQLEwZJVFNlcnYxITAfBgkqhkiG
9w0BCQEWEmhlbHBkZXNrQGFpdC5hYy50aDEUMBIGA1UEBxMLS2xvbmcgTHVhbmcx
FTATBgNVBAgTDFBhdGh1bSBUaGFuaTELMAkGA1UEBhMCVEgxFjAUBgNVBAMTDUFJ
VCBJVFNlcnYgQ0GCCQCT3VcYK9CgmzANBgkqhkiG9w0BAQUFAAOBgQAS2DcY2fxp
5xjFp6xt1DT758Wvzd043iJonCt3rmjVf2Gc0/PaR/gzt5Ig7/aTeO9u0pMP2R6r
mIfAYwVvlQQZ+14xfSyNBlrpLk/c4ISyBaPBzXnLHzhdc78vzcIkDNAL/ROc9dbP
FrScJKnTwbfa9Bmvu8Lb/DOfHtYPGfibvQ==
-----END CERTIFICATE-----



Certificate:
    Data:
        Version: 3 (0x2)
        Serial Number: 9896630983275061127 (0x8957e571d73c1f87)
    Signature Algorithm: sha256WithRSAEncryption
        Issuer: C=TH, ST=Pathum Thani, L=Pathum Thani, O=Asian Institute of Technology (AIT), OU=ITServ, CN=Asian Institute of Technology (AIT)/emailAddress=helpdesk@ait.ac.th
        Validity
            Not Before: May 24 06:40:10 2016 GMT
            Not After : May 19 06:40:10 2036 GMT
        Subject: C=TH, ST=Pathum Thani, L=Pathum Thani, O=Asian Institute of Technology (AIT), OU=ITServ, CN=Asian Institute of Technology (AIT)/emailAddress=helpdesk@ait.ac.th
        Subject Public Key Info:
            Public Key Algorithm: rsaEncryption
                Public-Key: (4096 bit)
                Modulus:
                    00:d9:18:ec:61:e3:2f:ba:c3:46:35:59:23:a8:a7:
                    76:d6:86:22:16:e5:3b:86:d3:21:8e:21:9d:8d:14:
                    03:31:79:de:f7:e3:8d:8a:02:8f:90:ac:85:f5:8c:
                    e3:3e:77:a1:69:05:3b:86:c4:e0:12:9d:bc:ab:b0:
                    b3:a9:6b:df:2a:57:46:9a:db:01:02:84:e0:4a:02:
                    4c:83:ff:d9:ea:d4:28:2b:a0:c0:0d:ef:d4:d1:49:
                    15:02:e0:78:9a:81:f8:87:e5:45:7b:e9:5c:f0:23:
                    3d:3e:7b:b0:5b:9b:89:72:74:8a:90:7c:69:a4:e1:
                    c9:61:b7:6c:fd:3e:50:49:80:7b:7d:d6:87:74:fe:
                    9f:fa:f4:9c:dd:8e:22:19:86:88:a6:ab:a1:6b:12:
                    8d:df:8c:0d:83:8d:75:1a:b4:1c:3b:1b:0a:a8:c3:
                    d6:8a:b6:e3:04:9e:1d:dd:a4:9e:10:44:70:7d:4b:
                    bb:c8:40:91:12:68:c1:db:b8:7f:17:8d:87:5c:3f:
                    a3:b7:36:96:5f:3e:3a:24:25:ce:8e:09:a9:85:72:
                    ad:7a:44:e2:39:b5:19:9d:31:74:ef:d9:72:79:5d:
                    97:dc:fc:f8:41:86:bf:2c:3c:44:8b:51:fd:47:14:
                    40:9b:d0:52:1f:af:e8:4d:ba:3f:b4:0e:ac:8d:65:
                    d3:28:9b:8b:bf:80:78:c4:65:d6:fb:2d:2b:4c:34:
                    7a:8d:1c:ed:b1:1f:19:2a:38:0e:0f:4c:c4:7c:84:
                    48:3f:b5:d3:16:44:02:a9:1a:1f:1c:1d:37:27:69:
                    09:b1:db:74:60:ea:99:31:8b:0f:0e:83:7a:b2:df:
                    f6:10:d8:58:10:ec:81:da:2f:6c:21:a1:ad:06:fe:
                    ef:3a:2a:f7:02:d4:5c:91:3b:d2:85:e4:e2:f7:6a:
                    75:2b:d4:a2:c2:b2:9c:f8:60:15:88:9e:1e:f7:1a:
                    b2:21:6b:83:c4:24:b5:ab:f8:84:44:e2:f1:b7:e4:
                    31:a4:d3:cd:7c:89:93:61:c9:41:69:96:9a:19:d3:
                    60:84:a8:d8:1e:20:87:bb:e2:12:7f:6e:3e:eb:4a:
                    2a:5f:b9:b7:ca:5c:5a:f3:dc:c1:95:a2:f3:d6:28:
                    08:43:ec:55:3c:7f:91:3b:a9:87:d0:62:c5:11:b1:
                    c3:ff:ec:e1:9a:73:13:a4:51:ff:8c:b3:e5:eb:62:
                    71:fc:cd:d4:9c:a0:3b:a4:99:be:d7:be:49:7e:67:
                    b9:1c:d3:79:cf:3e:ab:79:c9:16:e3:d0:68:3e:89:
                    f7:5a:55:ca:57:e9:7b:bc:e7:40:94:0e:64:16:58:
                    d7:c3:7b:74:3f:2d:b9:35:2a:24:48:e6:b4:e7:5e:
                    4d:79:57
                Exponent: 65537 (0x10001)
        X509v3 extensions:
            X509v3 Subject Key Identifier: 
                D7:DF:F0:52:BD:1D:12:97:16:C3:3A:0D:10:E3:9C:6E:5B:F0:D3:4C
            X509v3 Authority Key Identifier: 
                keyid:D7:DF:F0:52:BD:1D:12:97:16:C3:3A:0D:10:E3:9C:6E:5B:F0:D3:4C

            X509v3 Basic Constraints: critical
                CA:TRUE
            X509v3 Key Usage: critical
                Digital Signature, Certificate Sign, CRL Sign
    Signature Algorithm: sha256WithRSAEncryption
         79:78:6d:c7:a8:06:42:fa:45:ef:09:25:1a:07:6a:e4:1c:f1:
         e3:4d:38:26:cf:fd:6d:0c:5f:c3:b4:cf:8e:ec:82:67:63:32:
         61:0a:62:7d:71:b8:a4:5f:81:2e:b7:40:64:c7:d8:6a:3e:06:
         ec:73:bc:a7:8d:ab:3d:18:1a:9f:d5:01:d7:a8:2f:c5:68:bd:
         8f:d0:05:cf:ba:1b:81:98:92:48:47:ca:85:08:53:b2:f3:d9:
         44:6b:97:5d:0f:06:d6:c7:5f:ca:53:9e:ae:bc:7d:89:e4:12:
         f4:bf:03:ca:38:7b:45:d1:8b:5a:1a:fe:71:44:5a:95:a0:7a:
         5d:7e:3f:92:6c:12:ba:a2:db:be:9e:52:d8:59:17:1c:04:02:
         e0:a9:ad:8c:8f:6b:72:e4:83:be:da:59:18:6f:8e:cf:6f:97:
         22:b5:14:70:1a:19:d4:e2:5a:3f:10:ba:74:b2:ba:4c:ca:c4:
         71:f7:34:1e:9b:86:85:2f:78:ef:f3:89:94:f9:ea:34:74:3f:
         4f:6d:70:af:1b:14:aa:13:4b:01:3f:e8:ab:97:f5:57:85:1a:
         2d:8b:70:fa:4b:4a:87:52:c0:72:a4:77:ba:4b:a6:6f:58:33:
         02:c0:df:fe:c1:08:d2:e5:46:15:f1:18:82:43:97:d1:6a:79:
         8b:bc:4e:c6:c6:bc:28:54:c5:24:9a:4f:bb:c7:10:66:2f:50:
         b5:eb:9e:6f:99:43:8d:f8:96:a3:7a:bc:e2:66:25:39:23:f1:
         58:0d:4d:53:0a:8a:49:6c:8c:5f:0d:6a:68:d9:7d:e3:3b:ba:
         92:d0:fa:07:7c:35:cd:2f:c9:e7:03:67:f8:60:b8:b7:50:21:
         0d:ba:fb:e2:e4:9f:7b:04:dd:38:b4:82:6a:c5:14:7b:ac:c6:
         d8:03:64:cd:89:14:a7:1d:ce:1d:c7:ae:b5:1b:07:74:08:1c:
         91:a5:68:5a:0f:04:14:d2:5d:07:bf:7e:b7:ec:9b:82:84:29:
         e6:22:9a:fc:70:22:0e:fd:80:ea:ee:d2:b4:43:1f:9e:80:23:
         1b:1e:17:90:dd:4b:29:f2:1c:c7:3b:0b:4f:94:1b:91:a7:cd:
         5f:44:39:f3:97:b8:cf:45:2c:ee:32:a2:9e:57:5d:f3:b1:81:
         d0:d4:aa:ca:5b:20:dd:35:0c:05:4d:ba:41:4a:04:9b:6f:5c:
         dd:ba:ec:49:4f:44:5a:e7:79:16:78:bf:76:04:d7:ed:8e:1c:
         45:1f:2c:55:cc:c7:86:db:50:d6:4e:0f:22:41:36:48:e5:6a:
         52:03:95:d7:2d:bb:0e:8b:f3:cc:b4:c9:fd:f5:29:22:96:dd:
         93:45:9d:62:35:c6:52:ab
SHA1 Fingerprint=B8:17:B4:99:52:D6:A2:DF:62:D1:2B:E4:E4:66:C0:79:96:CA:40:EF
-----BEGIN CERTIFICATE-----
MIIGfjCCBGagAwIBAgIJAIlX5XHXPB+HMA0GCSqGSIb3DQEBCwUAMIHLMQswCQYD
VQQGEwJUSDEVMBMGA1UECAwMUGF0aHVtIFRoYW5pMRUwEwYDVQQHDAxQYXRodW0g
VGhhbmkxLDAqBgNVBAoMI0FzaWFuIEluc3RpdHV0ZSBvZiBUZWNobm9sb2d5IChB
SVQpMQ8wDQYDVQQLDAZJVFNlcnYxLDAqBgNVBAMMI0FzaWFuIEluc3RpdHV0ZSBv
ZiBUZWNobm9sb2d5IChBSVQpMSEwHwYJKoZIhvcNAQkBFhJoZWxwZGVza0BhaXQu
YWMudGgwHhcNMTYwNTI0MDY0MDEwWhcNMzYwNTE5MDY0MDEwWjCByzELMAkGA1UE
BhMCVEgxFTATBgNVBAgMDFBhdGh1bSBUaGFuaTEVMBMGA1UEBwwMUGF0aHVtIFRo
YW5pMSwwKgYDVQQKDCNBc2lhbiBJbnN0aXR1dGUgb2YgVGVjaG5vbG9neSAoQUlU
KTEPMA0GA1UECwwGSVRTZXJ2MSwwKgYDVQQDDCNBc2lhbiBJbnN0aXR1dGUgb2Yg
VGVjaG5vbG9neSAoQUlUKTEhMB8GCSqGSIb3DQEJARYSaGVscGRlc2tAYWl0LmFj
LnRoMIICIjANBgkqhkiG9w0BAQEFAAOCAg8AMIICCgKCAgEA2RjsYeMvusNGNVkj
qKd21oYiFuU7htMhjiGdjRQDMXne9+ONigKPkKyF9YzjPnehaQU7hsTgEp28q7Cz
qWvfKldGmtsBAoTgSgJMg//Z6tQoK6DADe/U0UkVAuB4moH4h+VFe+lc8CM9Pnuw
W5uJcnSKkHxppOHJYbds/T5QSYB7fdaHdP6f+vSc3Y4iGYaIpquhaxKN34wNg411
GrQcOxsKqMPWirbjBJ4d3aSeEERwfUu7yECREmjB27h/F42HXD+jtzaWXz46JCXO
jgmphXKtekTiObUZnTF079lyeV2X3Pz4QYa/LDxEi1H9RxRAm9BSH6/oTbo/tA6s
jWXTKJuLv4B4xGXW+y0rTDR6jRztsR8ZKjgOD0zEfIRIP7XTFkQCqRofHB03J2kJ
sdt0YOqZMYsPDoN6st/2ENhYEOyB2i9sIaGtBv7vOir3AtRckTvSheTi92p1K9Si
wrKc+GAViJ4e9xqyIWuDxCS1q/iEROLxt+QxpNPNfImTYclBaZaaGdNghKjYHiCH
u+ISf24+60oqX7m3ylxa89zBlaLz1igIQ+xVPH+RO6mH0GLFEbHD/+zhmnMTpFH/
jLPl62Jx/M3UnKA7pJm+175Jfme5HNN5zz6reckW49BoPon3WlXKV+l7vOdAlA5k
FljXw3t0Py25NSokSOa0515NeVcCAwEAAaNjMGEwHQYDVR0OBBYEFNff8FK9HRKX
FsM6DRDjnG5b8NNMMB8GA1UdIwQYMBaAFNff8FK9HRKXFsM6DRDjnG5b8NNMMA8G
A1UdEwEB/wQFMAMBAf8wDgYDVR0PAQH/BAQDAgGGMA0GCSqGSIb3DQEBCwUAA4IC
AQB5eG3HqAZC+kXvCSUaB2rkHPHjTTgmz/1tDF/DtM+O7IJnYzJhCmJ9cbikX4Eu
t0Bkx9hqPgbsc7ynjas9GBqf1QHXqC/FaL2P0AXPuhuBmJJIR8qFCFOy89lEa5dd
DwbWx1/KU56uvH2J5BL0vwPKOHtF0YtaGv5xRFqVoHpdfj+SbBK6otu+nlLYWRcc
BALgqa2Mj2ty5IO+2lkYb47Pb5citRRwGhnU4lo/ELp0srpMysRx9zQem4aFL3jv
84mU+eo0dD9PbXCvGxSqE0sBP+irl/VXhRoti3D6S0qHUsBypHe6S6ZvWDMCwN/+
wQjS5UYV8RiCQ5fRanmLvE7GxrwoVMUkmk+7xxBmL1C1655vmUON+JajerziZiU5
I/FYDU1TCopJbIxfDWpo2X3jO7qS0PoHfDXNL8nnA2f4YLi3UCENuvvi5J97BN04
tIJqxRR7rMbYA2TNiRSnHc4dx661Gwd0CByRpWhaDwQU0l0Hv3637JuChCnmIpr8
cCIO/YDq7tK0Qx+egCMbHheQ3Usp8hzHOwtPlBuRp81fRDnzl7jPRSzuMqKeV13z
sYHQ1KrKWyDdNQwFTbpBSgSbb1zduuxJT0Ra53kWeL92BNftjhxFHyxVzMeG21DW
Tg8iQTZI5WpSA5XXLbsOi/PMtMn99Skilt2TRZ1iNcZSqw==
-----END CERTIFICATE-----
